target datalayout = "e-m:e-p270:32:32-p271:32:32-p272:64:64-i64:64-i128:128-f80:128-n8:16:32:64-S128"
target triple = "x86_64-pc-linux-gnu"

%struct.dt_gui_presets_edit_dialog_t = type { ptr, ptr, ptr, ptr, i32, ptr, ptr, ptr, ptr, ptr, ptr, ptr, ptr, ptr, ptr, ptr, ptr, ptr, ptr, ptr, ptr, ptr, ptr, ptr, ptr, i32, [5 x ptr], ptr, ptr }

; Function Attrs: nounwind uwtable
define internal void @_format_toggled(ptr noundef %0, ptr noundef %1) #0 {
  %3 = alloca ptr, align 8
  %4 = alloca ptr, align 8
  %5 = alloca ptr, align 8
  %6 = alloca ptr, align 8
  %7 = alloca i32, align 4
  %8 = alloca i32, align 4
  %9 = alloca i32, align 4
  %10 = alloca i32, align 4
  store ptr %0, ptr %3, align 8, !tbaa !210
  store ptr %1, ptr %4, align 8, !tbaa !17
  call void @llvm.lifetime.start.p0(i64 8, ptr %5) #11
  %11 = load ptr, ptr %4, align 8, !tbaa !17
  store ptr %11, ptr %5, align 8, !tbaa !87
  call void @llvm.lifetime.start.p0(i64 8, ptr %6) #11
  %12 = load ptr, ptr %5, align 8, !tbaa !87
  %13 = getelementptr inbounds nuw %struct.dt_gui_presets_edit_dialog_t, ptr %12, i32 0, i32 22
  %14 = load ptr, ptr %13, align 8, !tbaa !112
  %15 = call ptr @gtk_dialog_get_widget_for_response(ptr noundef %14, i32 noundef -5)
  store ptr %15, ptr %6, align 8, !tbaa !111
  call void @llvm.lifetime.start.p0(i64 4, ptr %7) #11
  %16 = load ptr, ptr %5, align 8, !tbaa !87
  %17 = getelementptr inbounds nuw %struct.dt_gui_presets_edit_dialog_t, ptr %16, i32 0, i32 26
  %18 = getelementptr inbounds [5 x ptr], ptr %17, i64 0, i64 0
  %19 = load ptr, ptr %18, align 8, !tbaa !111
  %20 = call i64 @gtk_toggle_button_get_type() #14
  %21 = call ptr @g_type_check_instance_cast(ptr noundef %19, i64 noundef %20)
  %22 = call i32 @gtk_toggle_button_get_active(ptr noundef %21)
  %23 = icmp ne i32 %22, 0
  br i1 %23, label %33, label %24

24:                                               ; preds = %2
  %25 = load ptr, ptr %5, align 8, !tbaa !87
  %26 = getelementptr inbounds nuw %struct.dt_gui_presets_edit_dialog_t, ptr %25, i32 0, i32 26
  %27 = getelementptr inbounds [5 x ptr], ptr %26, i64 0, i64 1
  %28 = load ptr, ptr %27, align 8, !tbaa !111
  %29 = call i64 @gtk_toggle_button_get_type() #14
  %30 = call ptr @g_type_check_instance_cast(ptr noundef %28, i64 noundef %29)
  %31 = call i32 @gtk_toggle_button_get_active(ptr noundef %30)
  %32 = icmp ne i32 %31, 0
  br label %33

33:                                               ; preds = %24, %2
  %34 = phi i1 [ true, %2 ], [ %32, %24 ]
  %35 = zext i1 %34 to i32
  store i32 %35, ptr %7, align 4, !tbaa !13
  call void @llvm.lifetime.start.p0(i64 4, ptr %8) #11
  %36 = load ptr, ptr %5, align 8, !tbaa !87
  %37 = getelementptr inbounds nuw %struct.dt_gui_presets_edit_dialog_t, ptr %36, i32 0, i32 26
  %38 = getelementptr inbounds [5 x ptr], ptr %37, i64 0, i64 2
  %39 = load ptr, ptr %38, align 8, !tbaa !111
  %40 = call i64 @gtk_toggle_button_get_type() #14
  %41 = call ptr @g_type_check_instance_cast(ptr noundef %39, i64 noundef %40)
  %42 = call i32 @gtk_toggle_button_get_active(ptr noundef %41)
  %43 = icmp ne i32 %42, 0
  br i1 %43, label %62, label %44

44:                                               ; preds = %33
  %45 = load ptr, ptr %5, align 8, !tbaa !87
  %46 = getelementptr inbounds nuw %struct.dt_gui_presets_edit_dialog_t, ptr %45, i32 0, i32 26
  %47 = getelementptr inbounds [5 x ptr], ptr %46, i64 0, i64 3
  %48 = load ptr, ptr %47, align 8, !tbaa !111
  %49 = call i64 @gtk_toggle_button_get_type() #14
  %50 = call ptr @g_type_check_instance_cast(ptr noundef %48, i64 noundef %49)
  %51 = call i32 @gtk_toggle_button_get_active(ptr noundef %50)
  %52 = icmp ne i32 %51, 0
  br i1 %52, label %62, label %53

53:                                               ; preds = %44
  %54 = load ptr, ptr %5, align 8, !tbaa !87
  %55 = getelementptr inbounds nuw %struct.dt_gui_presets_edit_dialog_t, ptr %54, i32 0, i32 26
  %56 = getelementptr inbounds [5 x ptr], ptr %55, i64 0, i64 4
  %57 = load ptr, ptr %56, align 8, !tbaa !111
  %58 = call i64 @gtk_toggle_button_get_type() #14
  %59 = call ptr @g_type_check_instance_cast(ptr noundef %57, i64 noundef %58)
  %60 = call i32 @gtk_toggle_button_get_active(ptr noundef %59)
  %61 = icmp ne i32 %60, 0
  br label %62

62:                                               ; preds = %53, %44, %33
  %63 = phi i1 [ true, %44 ], [ true, %33 ], [ %61, %53 ]
  %64 = zext i1 %63 to i32
  store i32 %64, ptr %8, align 4, !tbaa !13
  call void @llvm.lifetime.start.p0(i64 4, ptr %9) #11
  %65 = load ptr, ptr %5, align 8, !tbaa !87
  %66 = getelementptr inbounds nuw %struct.dt_gui_presets_edit_dialog_t, ptr %65, i32 0, i32 1
  %67 = load ptr, ptr %66, align 8, !tbaa !95
  %68 = icmp ne ptr %67, null
  br i1 %68, label %69, label %77

69:                                               ; preds = %62
  %70 = load i32, ptr %7, align 4, !tbaa !13
  %71 = icmp ne i32 %70, 0
  br i1 %71, label %72, label %75

72:                                               ; preds = %69
  %73 = load i32, ptr %8, align 4, !tbaa !13
  %74 = icmp ne i32 %73, 0
  br label %75

75:                                               ; preds = %72, %69
  %76 = phi i1 [ false, %69 ], [ %74, %72 ]
  br label %77

77:                                               ; preds = %75, %62
  %78 = phi i1 [ true, %62 ], [ %76, %75 ]
  %79 = zext i1 %78 to i32
  store i32 %79, ptr %9, align 4, !tbaa !13
  call void @llvm.lifetime.start.p0(i64 4, ptr %10) #11
  store i32 2, ptr %10, align 4, !tbaa !13
  br label %80

80:                                               ; preds = %92, %77
  %81 = load i32, ptr %10, align 4, !tbaa !13
  %82 = icmp slt i32 %81, 5
  br i1 %82, label %84, label %83

83:                                               ; preds = %80
  call void @llvm.lifetime.end.p0(i64 4, ptr %10) #11
  br label %95

84:                                               ; preds = %80
  %85 = load ptr, ptr %5, align 8, !tbaa !87
  %86 = getelementptr inbounds nuw %struct.dt_gui_presets_edit_dialog_t, ptr %85, i32 0, i32 26
  %87 = load i32, ptr %10, align 4, !tbaa !13
  %88 = sext i32 %87 to i64
  %89 = getelementptr inbounds [5 x ptr], ptr %86, i64 0, i64 %88
  %90 = load ptr, ptr %89, align 8, !tbaa !111
  %91 = load i32, ptr %7, align 4, !tbaa !13
  call void @gtk_widget_set_visible(ptr noundef %90, i32 noundef %91)
  br label %92

92:                                               ; preds = %84
  %93 = load i32, ptr %10, align 4, !tbaa !13
  %94 = add nsw i32 %93, 1
  store i32 %94, ptr %10, align 4, !tbaa !13
  br label %80

95:                                               ; preds = %83
  %96 = load ptr, ptr %5, align 8, !tbaa !87
  %97 = getelementptr inbounds nuw %struct.dt_gui_presets_edit_dialog_t, ptr %96, i32 0, i32 23
  %98 = load ptr, ptr %97, align 8, !tbaa !140
  %99 = load i32, ptr %7, align 4, !tbaa !13
  call void @gtk_widget_set_sensitive(ptr noundef %98, i32 noundef %99)
  %100 = load ptr, ptr %6, align 8, !tbaa !111
  %101 = load i32, ptr %9, align 4, !tbaa !13
  call void @gtk_widget_set_sensitive(ptr noundef %100, i32 noundef %101)
  call void @llvm.lifetime.end.p0(i64 4, ptr %9) #11
  call void @llvm.lifetime.end.p0(i64 4, ptr %8) #11
  call void @llvm.lifetime.end.p0(i64 4, ptr %7) #11
  call void @llvm.lifetime.end.p0(i64 8, ptr %6) #11
  call void @llvm.lifetime.end.p0(i64 8, ptr %5) #11
  ret void
}