; Function Attrs: nounwind uwtable
define internal void @_format_toggled(ptr readnone captures(none) %0, ptr noundef readonly captures(none) %1) #0 {
  %3 = getelementptr inbounds nuw i8, ptr %1, i64 176
  %4 = load ptr, ptr %3, align 8, !tbaa !88
  %5 = tail call ptr @gtk_dialog_get_widget_for_response(ptr noundef %4, i32 noundef -5) #16
  %6 = getelementptr inbounds nuw i8, ptr %1, i64 208
  %7 = load ptr, ptr %6, align 8, !tbaa !113
  %8 = tail call i64 @gtk_toggle_button_get_type() #20
  %9 = tail call ptr @g_type_check_instance_cast(ptr noundef %7, i64 noundef %8) #16
  %10 = tail call i32 @gtk_toggle_button_get_active(ptr noundef %9) #16
  %.not = icmp eq i32 %10, 0
  br i1 %.not, label %11, label %17

11:                                               ; preds = %2
  %12 = getelementptr inbounds nuw i8, ptr %1, i64 216
  %13 = load ptr, ptr %12, align 8, !tbaa !113
  %14 = tail call ptr @g_type_check_instance_cast(ptr noundef %13, i64 noundef %8) #16
  %15 = tail call i32 @gtk_toggle_button_get_active(ptr noundef %14) #16
  %16 = icmp ne i32 %15, 0
  br label %17

17:                                               ; preds = %11, %2
  %18 = phi i1 [ true, %2 ], [ %16, %11 ]
  %19 = zext i1 %18 to i32
  %20 = getelementptr inbounds nuw i8, ptr %1, i64 224
  %21 = load ptr, ptr %20, align 8, !tbaa !113
  %22 = tail call ptr @g_type_check_instance_cast(ptr noundef %21, i64 noundef %8) #16
  %23 = tail call i32 @gtk_toggle_button_get_active(ptr noundef %22) #16
  %.not18 = icmp eq i32 %23, 0
  br i1 %.not18, label %24, label %35

24:                                               ; preds = %17
  %25 = getelementptr inbounds nuw i8, ptr %1, i64 232
  %26 = load ptr, ptr %25, align 8, !tbaa !113
  %27 = tail call ptr @g_type_check_instance_cast(ptr noundef %26, i64 noundef %8) #16
  %28 = tail call i32 @gtk_toggle_button_get_active(ptr noundef %27) #16
  %.not19 = icmp eq i32 %28, 0
  br i1 %.not19, label %29, label %35

29:                                               ; preds = %24
  %30 = getelementptr inbounds nuw i8, ptr %1, i64 240
  %31 = load ptr, ptr %30, align 8, !tbaa !113
  %32 = tail call ptr @g_type_check_instance_cast(ptr noundef %31, i64 noundef %8) #16
  %33 = tail call i32 @gtk_toggle_button_get_active(ptr noundef %32) #16
  %34 = icmp ne i32 %33, 0
  br label %35

35:                                               ; preds = %29, %24, %17
  %36 = phi i1 [ true, %24 ], [ true, %17 ], [ %34, %29 ]
  %37 = getelementptr inbounds nuw i8, ptr %1, i64 8
  %38 = load ptr, ptr %37, align 8, !tbaa !70
  br label %44

39:                                               ; preds = %44
  %.not20 = icmp eq ptr %38, null
  %40 = select i1 %18, i1 %36, i1 false
  %narrow = select i1 %.not20, i1 true, i1 %40
  %41 = zext i1 %narrow to i32
  %42 = getelementptr inbounds nuw i8, ptr %1, i64 184
  %43 = load ptr, ptr %42, align 8, !tbaa !114
  tail call void @gtk_widget_set_sensitive(ptr noundef %43, i32 noundef %19) #16
  tail call void @gtk_widget_set_sensitive(ptr noundef %5, i32 noundef %41) #16
  ret void

44:                                               ; preds = %35, %44
  %indvars.iv = phi i64 [ 2, %35 ], [ %indvars.iv.next, %44 ]
  %45 = getelementptr inbounds nuw [5 x ptr], ptr %6, i64 0, i64 %indvars.iv
  %46 = load ptr, ptr %45, align 8, !tbaa !113
  tail call void @gtk_widget_set_visible(ptr noundef %46, i32 noundef %19) #16
  %indvars.iv.next = add nuw nsw i64 %indvars.iv, 1
  %exitcond.not = icmp eq i64 %indvars.iv.next, 5
  br i1 %exitcond.not, label %39, label %44
}